target datalayout = "e-m:e-p270:32:32-p271:32:32-p272:64:64-i64:64-i128:128-f80:128-n8:16:32:64-S128"
target triple = "x86_64-pc-linux-gnu"

%"struct.cv::structured_light::GrayCodePattern::Params" = type { i32, i32 }
%"class.cv::structured_light::GrayCodePattern_Impl" = type { %"class.cv::structured_light::GrayCodePattern", %"struct.cv::structured_light::GrayCodePattern::Params", i64, i64, i64, i64, i64 }
%"class.cv::structured_light::GrayCodePattern" = type { %"class.cv::structured_light::StructuredLightPattern" }
%"class.cv::structured_light::StructuredLightPattern" = type { %"class.cv::Algorithm" }
%"class.cv::Algorithm" = type { ptr }

; Function Attrs: mustprogress nounwind uwtable
define linkonce_odr hidden void @_ZN2cv16structured_light22StructuredLightPatternD2Ev(ptr noundef nonnull align 8 dereferenceable(8) %0, ptr noundef %1) unnamed_addr #4 comdat align 2 {
  %3 = alloca ptr, align 8
  %4 = alloca ptr, align 8
  store ptr %0, ptr %3, align 8
  store ptr %1, ptr %4, align 8
  ret void
}

; Function Attrs: mustprogress nounwind uwtable
define linkonce_odr hidden void @_ZN2cv16structured_light22StructuredLightPatternC2Ev(ptr noundef nonnull align 8 dereferenceable(8) %0, ptr noundef %1) unnamed_addr #4 comdat align 2 {
  %3 = alloca ptr, align 8
  %4 = alloca ptr, align 8
  store ptr %0, ptr %3, align 8
  store ptr %1, ptr %4, align 8
  %5 = load ptr, ptr %3, align 8
  %6 = load ptr, ptr %4, align 8
  %7 = load ptr, ptr %6, align 8
  store ptr %7, ptr %5, align 8
  %8 = getelementptr inbounds ptr, ptr %6, i64 1
  %9 = load ptr, ptr %8, align 8
  %10 = load ptr, ptr %5, align 8
  %11 = getelementptr i8, ptr %10, i64 -80
  %12 = load i64, ptr %11, align 8
  %13 = getelementptr inbounds i8, ptr %5, i64 %12
  store ptr %9, ptr %13, align 8
  ret void
}

; Function Attrs: mustprogress nounwind uwtable
define linkonce_odr hidden void @_ZN2cv16structured_light15GrayCodePatternD2Ev(ptr noundef nonnull align 8 dereferenceable(8) %0, ptr noundef %1) unnamed_addr #4 comdat align 2 {
  %3 = alloca ptr, align 8
  %4 = alloca ptr, align 8
  store ptr %0, ptr %3, align 8
  store ptr %1, ptr %4, align 8
  %5 = load ptr, ptr %3, align 8
  %6 = load ptr, ptr %4, align 8
  %7 = getelementptr inbounds ptr, ptr %6, i64 1
  call void @_ZN2cv16structured_light22StructuredLightPatternD2Ev(ptr noundef nonnull align 8 dereferenceable(8) %5, ptr noundef %7) #3
  ret void
}

; Function Attrs: mustprogress nounwind uwtable
define void @_ZN2cv16structured_light20GrayCodePattern_Impl28computeNumberOfPatternImagesEv(ptr noundef nonnull align 8 dereferenceable(56) %0) #4 align 2 {
  %2 = alloca ptr, align 8
  store ptr %0, ptr %2, align 8
  %3 = load ptr, ptr %2, align 8
  %4 = getelementptr inbounds %"class.cv::structured_light::GrayCodePattern_Impl", ptr %3, i32 0, i32 1
  %5 = getelementptr inbounds %"struct.cv::structured_light::GrayCodePattern::Params", ptr %4, i32 0, i32 0
  %6 = load i32, ptr %5, align 8
  %7 = sitofp i32 %6 to double
  %8 = call double @log(double noundef %7) #3
  %9 = call double @log(double noundef 2.000000e+00) #3
  %10 = fdiv double %8, %9
  %11 = call double @llvm.ceil.f64(double %10)
  %12 = fptoui double %11 to i64
  %13 = getelementptr inbounds %"class.cv::structured_light::GrayCodePattern_Impl", ptr %3, i32 0, i32 4
  store i64 %12, ptr %13, align 8
  %14 = getelementptr inbounds %"class.cv::structured_light::GrayCodePattern_Impl", ptr %3, i32 0, i32 1
  %15 = getelementptr inbounds %"struct.cv::structured_light::GrayCodePattern::Params", ptr %14, i32 0, i32 1
  %16 = load i32, ptr %15, align 4
  %17 = sitofp i32 %16 to double
  %18 = call double @log(double noundef %17) #3
  %19 = call double @log(double noundef 2.000000e+00) #3
  %20 = fdiv double %18, %19
  %21 = call double @llvm.ceil.f64(double %20)
  %22 = fptoui double %21 to i64
  %23 = getelementptr inbounds %"class.cv::structured_light::GrayCodePattern_Impl", ptr %3, i32 0, i32 3
  store i64 %22, ptr %23, align 8
  %24 = getelementptr inbounds %"class.cv::structured_light::GrayCodePattern_Impl", ptr %3, i32 0, i32 4
  %25 = load i64, ptr %24, align 8
  %26 = mul i64 2, %25
  %27 = getelementptr inbounds %"class.cv::structured_light::GrayCodePattern_Impl", ptr %3, i32 0, i32 3
  %28 = load i64, ptr %27, align 8
  %29 = mul i64 2, %28
  %30 = add i64 %26, %29
  %31 = getelementptr inbounds %"class.cv::structured_light::GrayCodePattern_Impl", ptr %3, i32 0, i32 2
  store i64 %30, ptr %31, align 8
  ret void
}

; Function Attrs: mustprogress nounwind uwtable
define linkonce_odr hidden void @_ZN2cv16structured_light15GrayCodePatternC2Ev(ptr noundef nonnull align 8 dereferenceable(8) %0, ptr noundef %1) unnamed_addr #4 comdat align 2 {
  %3 = alloca ptr, align 8
  %4 = alloca ptr, align 8
  store ptr %0, ptr %3, align 8
  store ptr %1, ptr %4, align 8
  %5 = load ptr, ptr %3, align 8
  %6 = load ptr, ptr %4, align 8
  %7 = getelementptr inbounds ptr, ptr %6, i64 1
  call void @_ZN2cv16structured_light22StructuredLightPatternC2Ev(ptr noundef nonnull align 8 dereferenceable(8) %5, ptr noundef %7) #3
  %8 = load ptr, ptr %6, align 8
  store ptr %8, ptr %5, align 8
  %9 = getelementptr inbounds ptr, ptr %6, i64 3
  %10 = load ptr, ptr %9, align 8
  %11 = load ptr, ptr %5, align 8
  %12 = getelementptr i8, ptr %11, i64 -80
  %13 = load i64, ptr %12, align 8
  %14 = getelementptr inbounds i8, ptr %5, i64 %13
  store ptr %10, ptr %14, align 8
  ret void
}

; Function Attrs: mustprogress uwtable
define void @_ZN2cv16structured_light20GrayCodePattern_ImplC1ERKNS0_15GrayCodePattern6ParamsE(ptr noundef nonnull align 8 dereferenceable(56) %0, ptr noundef nonnull align 4 dereferenceable(8) %1) unnamed_addr #5 align 2 personality ptr @__gxx_personality_v0 {
  %3 = alloca ptr, align 8
  %4 = alloca ptr, align 8
  %5 = alloca ptr, align 8
  %6 = alloca i32, align 4
  store ptr %0, ptr %3, align 8
  store ptr %1, ptr %4, align 8
  %7 = load ptr, ptr %3, align 8
  call void @_ZN2cv9AlgorithmC2Ev(ptr noundef nonnull align 8 dereferenceable(8) %7)
  call void @_ZN2cv16structured_light15GrayCodePatternC2Ev(ptr noundef nonnull align 8 dereferenceable(8) %7, ptr noundef getelementptr inbounds ([6 x ptr], ptr @_ZTTN2cv16structured_light20GrayCodePattern_ImplE, i64 0, i64 1)) #3
  store ptr getelementptr inbounds inrange(-80, 120) ({ [25 x ptr] }, ptr @_ZTVN2cv16structured_light20GrayCodePattern_ImplE, i32 0, i32 0, i32 10), ptr %7, align 8
  store ptr getelementptr inbounds inrange(-80, 120) ({ [25 x ptr] }, ptr @_ZTVN2cv16structured_light20GrayCodePattern_ImplE, i32 0, i32 0, i32 10), ptr %7, align 8
  %8 = getelementptr inbounds %"class.cv::structured_light::GrayCodePattern_Impl", ptr %7, i32 0, i32 1
  %9 = load ptr, ptr %4, align 8
  call void @llvm.memcpy.p0.p0.i64(ptr align 8 %8, ptr align 4 %9, i64 8, i1 false)
  invoke void @_ZN2cv16structured_light20GrayCodePattern_Impl28computeNumberOfPatternImagesEv(ptr noundef nonnull align 8 dereferenceable(56) %7)
          to label %10 unwind label %13

10:                                               ; preds = %2
  %11 = getelementptr inbounds %"class.cv::structured_light::GrayCodePattern_Impl", ptr %7, i32 0, i32 5
  store i64 40, ptr %11, align 8
  %12 = getelementptr inbounds %"class.cv::structured_light::GrayCodePattern_Impl", ptr %7, i32 0, i32 6
  store i64 5, ptr %12, align 8
  ret void

13:                                               ; preds = %2
  %14 = landingpad { ptr, i32 }
          cleanup
  %15 = extractvalue { ptr, i32 } %14, 0
  store ptr %15, ptr %5, align 8
  %16 = extractvalue { ptr, i32 } %14, 1
  store i32 %16, ptr %6, align 4
  call void @_ZN2cv16structured_light15GrayCodePatternD2Ev(ptr noundef nonnull align 8 dereferenceable(8) %7, ptr noundef getelementptr inbounds ([6 x ptr], ptr @_ZTTN2cv16structured_light20GrayCodePattern_ImplE, i64 0, i64 1)) #3
  call void @_ZN2cv9AlgorithmD2Ev(ptr noundef nonnull align 8 dereferenceable(8) %7) #3
  br label %17

17:                                               ; preds = %13
  %18 = load ptr, ptr %5, align 8
  %19 = load i32, ptr %6, align 4
  %20 = insertvalue { ptr, i32 } poison, ptr %18, 0
  %21 = insertvalue { ptr, i32 } %20, i32 %19, 1
  resume { ptr, i32 } %21
}