; Function Attrs: mustprogress uwtable
define void @_ZN2cv16structured_light20GrayCodePattern_ImplC1ERKNS0_15GrayCodePattern6ParamsE(ptr noundef nonnull align 8 dereferenceable(56) %0, ptr nocapture noundef nonnull readonly align 4 dereferenceable(8) %1) unnamed_addr #7 align 2 personality ptr @__gxx_personality_v0 {
  tail call void @_ZN2cv9AlgorithmC2Ev(ptr noundef nonnull align 8 dereferenceable(8) %0)
  store ptr getelementptr inbounds inrange(-80, 120) (i8, ptr @_ZTVN2cv16structured_light20GrayCodePattern_ImplE, i64 80), ptr %0, align 8
  %3 = getelementptr inbounds i8, ptr %0, i64 8
  %4 = load i64, ptr %1, align 4
  store i64 %4, ptr %3, align 8
  %5 = trunc i64 %4 to i32
  %6 = sitofp i32 %5 to double
  %7 = tail call double @log(double noundef %6) #25
  %8 = fdiv double %7, 0x3FE62E42FEFA39EF
  %9 = tail call double @llvm.ceil.f64(double %8)
  %10 = fptoui double %9 to i64
  %11 = getelementptr inbounds i8, ptr %0, i64 32
  store i64 %10, ptr %11, align 8
  %12 = getelementptr inbounds i8, ptr %0, i64 12
  %13 = load i32, ptr %12, align 4
  %14 = sitofp i32 %13 to double
  %15 = tail call double @log(double noundef %14) #25
  %16 = fdiv double %15, 0x3FE62E42FEFA39EF
  %17 = tail call double @llvm.ceil.f64(double %16)
  %18 = fptoui double %17 to i64
  %19 = getelementptr inbounds i8, ptr %0, i64 24
  store i64 %18, ptr %19, align 8
  %20 = load i64, ptr %11, align 8
  %21 = add i64 %20, %18
  %22 = shl i64 %21, 1
  %23 = getelementptr inbounds i8, ptr %0, i64 16
  store i64 %22, ptr %23, align 8
  %24 = getelementptr inbounds i8, ptr %0, i64 40
  store i64 40, ptr %24, align 8
  %25 = getelementptr inbounds i8, ptr %0, i64 48
  store i64 5, ptr %25, align 8
  ret void
}